target datalayout = "e-m:e-p270:32:32-p271:32:32-p272:64:64-i64:64-i128:128-f80:128-n8:16:32:64-S128"
target triple = "x86_64-pc-linux-gnu"

@.str = private unnamed_addr constant [26 x i8] c"Parameter '%s' is invalid\00", align 1
@.str.1 = private unnamed_addr constant [4 x i8] c"url\00", align 1

; Function Attrs: nounwind uwtable
define hidden zeroext i1 @SDL_OpenURL_REAL(ptr noundef %0) #0 {
  %2 = alloca i1, align 1
  %3 = alloca ptr, align 8
  store ptr %0, ptr %3, align 8
  %4 = load ptr, ptr %3, align 8
  %5 = icmp ne ptr %4, null
  br i1 %5, label %8, label %6

6:                                                ; preds = %1
  %7 = call zeroext i1 (ptr, ...) @SDL_SetError_REAL(ptr noundef @.str, ptr noundef @.str.1)
  store i1 %7, ptr %2, align 1
  br label %11

8:                                                ; preds = %1
  %9 = load ptr, ptr %3, align 8
  %10 = call zeroext i1 @SDL_SYS_OpenURL(ptr noundef %9)
  store i1 %10, ptr %2, align 1
  br label %11

11:                                               ; preds = %8, %6
  %12 = load i1, ptr %2, align 1
  ret i1 %12
}

declare zeroext i1 @SDL_SetError_REAL(ptr noundef, ...) #1

declare zeroext i1 @SDL_SYS_OpenURL(ptr noundef) #1


!llvm.module.flags = !{!0, !1, !2}

!0 = !{i32 1, !"wchar_size", i32 4}
!1 = !{i32 8, !"PIC Level", i32 2}
!2 = !{i32 7, !"uwtable", i32 2}
