; ModuleID = 'bench/sdl/original/SDL_url.ll'
source_filename = "bench/sdl/original/SDL_url.ll"
target datalayout = "e-m:e-p270:32:32-p271:32:32-p272:64:64-i64:64-i128:128-f80:128-n8:16:32:64-S128"
target triple = "x86_64-pc-linux-gnu"

@.str = private unnamed_addr constant [26 x i8] c"Parameter '%s' is invalid\00", align 1
@.str.1 = private unnamed_addr constant [4 x i8] c"url\00", align 1

; Function Attrs: nounwind uwtable
define hidden zeroext i1 @SDL_OpenURL_REAL(ptr noundef %0) local_unnamed_addr #0 {
  %.not = icmp eq ptr %0, null
  br i1 %.not, label %2, label %4

2:                                                ; preds = %1
  %3 = tail call zeroext i1 (ptr, ...) @SDL_SetError_REAL(ptr noundef nonnull @.str, ptr noundef nonnull @.str.1) #2
  br label %6

4:                                                ; preds = %1
  %5 = tail call zeroext i1 @SDL_SYS_OpenURL(ptr noundef nonnull %0) #2
  br label %6

6:                                                ; preds = %4, %2
  %.0 = phi i1 [ %5, %4 ], [ %3, %2 ]
  ret i1 %.0
}

declare zeroext i1 @SDL_SetError_REAL(ptr noundef, ...) local_unnamed_addr #1

declare zeroext i1 @SDL_SYS_OpenURL(ptr noundef) local_unnamed_addr #1


!llvm.module.flags = !{!0, !1, !2}

!0 = !{i32 1, !"wchar_size", i32 4}
!1 = !{i32 8, !"PIC Level", i32 2}
!2 = !{i32 7, !"uwtable", i32 2}
